Certificate:
    Data:
        Version: 3 (0x2)
        Serial Number:
            da:43:bd:13:9b:d2:58:bb:4d:d6:1c:ac:c4:f3:db:e0
        Signature Algorithm: sha384WithRSAEncryption
        Issuer: C = US, ST = New Jersey, L = Jersey City, O = The USERTRUST Network, CN = USERTrust RSA Certification Authority
        Validity
            Not Before: Feb 18 00:00:00 2020 GMT
            Not After : May  1 23:59:59 2033 GMT
        Subject: C = NL, O = GEANT Vereniging, CN = GEANT OV RSA CA 4
        Subject Public Key Info:
            Public Key Algorithm: rsaEncryption
                RSA Public-Key: (4096 bit)
                Modulus:
                    00:a5:88:62:d5:a1:22:3e:c8:3d:64:a4:4c:03:0f:
                    50:af:c3:2d:86:ca:fa:47:6d:15:49:f1:5e:87:b4:
                    e0:c2:d2:d0:8b:a4:52:44:b3:a1:e2:8a:f8:10:c1:
                    bf:d6:d8:7c:96:28:ef:ef:19:c1:31:56:64:4f:2b:
                    05:88:f9:93:3e:22:ce:7e:fc:fe:43:03:b5:37:08:
                    ef:81:8f:89:ae:ce:df:4a:85:40:fd:34:24:5f:37:
                    31:bb:84:e5:dd:61:e2:fa:a2:66:28:b2:55:bb:f2:
                    4e:b8:7b:9d:ea:63:a9:2d:69:08:6e:13:83:4b:33:
                    b1:00:d2:76:e0:81:8f:c7:d8:78:39:70:f2:cb:af:
                    f7:e3:67:84:e9:43:d7:0a:d2:7c:03:37:ae:99:31:
                    ba:0d:fb:f9:29:5c:76:e2:50:85:4c:65:33:1d:40:
                    7e:8f:e8:34:95:22:a0:fd:27:f5:3b:38:02:6a:32:
                    55:f5:e9:e6:67:ff:38:c9:d8:78:f3:03:e9:ea:f6:
                    d6:7f:51:f4:3b:74:5d:dc:b8:69:31:25:67:4e:a1:
                    53:2c:a6:52:6d:07:8b:73:1f:e5:f4:33:8a:65:f0:
                    42:0b:d8:21:5b:1b:20:4e:a5:bd:81:0e:ef:dd:3d:
                    da:21:f4:9a:54:2f:6b:9f:05:71:3b:45:63:98:37:
                    4f:14:d6:dd:a3:19:e1:d3:36:30:7f:8e:67:57:54:
                    10:82:94:70:64:9f:77:c9:67:9d:86:9e:1c:87:56:
                    ba:02:3c:2a:b3:ec:2f:e2:66:73:98:14:a3:a2:fb:
                    55:d2:62:b0:77:e0:90:6d:24:e8:6a:51:14:3f:84:
                    1e:26:ae:14:77:3e:56:36:63:4c:23:83:98:3f:a7:
                    20:ae:79:49:e7:46:9a:d0:36:4f:94:9a:ab:29:03:
                    c6:2f:af:4a:41:0c:f5:d9:68:31:be:10:ae:55:4e:
                    f4:cb:a6:56:00:fa:29:05:ad:72:91:bb:2d:b6:92:
                    f1:00:36:6b:7b:97:07:e7:bd:e5:22:e2:c7:76:3c:
                    7b:36:3a:58:21:74:71:db:e4:09:51:19:d7:da:ac:
                    77:ed:e6:48:c5:85:f3:f2:08:0c:fb:05:c7:e9:10:
                    db:53:75:76:a3:90:cf:eb:b8:57:3c:74:80:6c:0f:
                    a9:d2:8a:e3:02:87:29:93:6a:2c:c4:72:a8:35:21:
                    37:2c:28:cd:c7:c5:95:77:19:d7:be:e4:36:f2:d2:
                    9d:68:ae:bd:92:77:e6:dd:b0:7b:c6:97:5f:b0:d3:
                    53:3c:7f:44:95:c8:ec:71:66:71:a5:e6:79:22:28:
                    fc:97:2a:c2:1b:5c:f4:bd:25:ad:48:1b:20:4a:75:
                    32:1b:fb
                Exponent: 65537 (0x10001)
        X509v3 extensions:
            X509v3 Authority Key Identifier: 
                keyid:53:79:BF:5A:AA:2B:4A:CF:54:80:E1:D8:9B:C0:9D:F2:B2:03:66:CB

            X509v3 Subject Key Identifier: 
                6F:1D:35:49:10:6C:32:FA:59:A0:9E:BC:8A:E8:1F:95:BE:71:7A:0C
            X509v3 Key Usage: critical
                Digital Signature, Certificate Sign, CRL Sign
            X509v3 Basic Constraints: critical
                CA:TRUE, pathlen:0
            X509v3 Extended Key Usage: 
                TLS Web Server Authentication, TLS Web Client Authentication
            X509v3 Certificate Policies: 
                Policy: X509v3 Any Policy
                  CPS: https://sectigo.com/CPS

            X509v3 CRL Distribution Points: 

                Full Name:
                  URI:http://crl.usertrust.com/USERTrustRSACertificationAuthority.crl

            Authority Information Access: 
                CA Issuers - URI:http://crt.usertrust.com/USERTrustRSAAddTrustCA.crt
                OCSP - URI:http://ocsp.usertrust.com

    Signature Algorithm: sha384WithRSAEncryption
         52:d9:42:dd:ed:31:8f:fd:41:31:f3:e1:75:08:54:5d:e2:e3:
         6f:4c:69:f1:41:36:f2:4c:d6:13:9c:43:cc:62:9b:7c:68:27:
         ad:3d:91:97:0e:60:2c:8c:7e:fd:c3:55:ad:a7:7f:ff:e3:2b:
         a5:3a:69:32:5c:6a:e7:d0:2c:5d:86:56:df:14:5a:b2:bb:e4:
         8c:67:cd:47:7b:ed:ff:54:40:97:c8:88:df:59:46:84:88:3a:
         75:f2:17:e4:de:1e:b0:b9:2b:41:e3:7c:1e:2c:87:28:7e:a4:
         86:6e:3d:eb:a2:24:55:5b:67:c7:3e:42:81:43:ea:11:89:f8:
         79:0f:b8:79:e1:12:ad:60:61:02:a5:da:8a:fe:c7:46:fa:6c:
         77:02:d8:7a:40:21:9e:b9:46:a6:2a:19:fc:22:48:4f:63:d3:
         4f:17:fe:18:73:3a:72:e5:27:36:a7:54:cd:fb:eb:42:00:3c:
         92:dd:7f:01:25:f1:da:87:7f:33:e7:3c:9e:52:6a:ac:6c:f6:
         f6:5a:c9:bd:e2:4e:48:43:17:d1:cf:ed:b3:4d:96:86:c7:cc:
         86:46:1a:e9:7b:a3:51:92:e6:bd:1d:44:ab:4f:2b:e3:cf:c4:
         67:89:7e:b7:92:f8:c2:dd:03:57:c5:5a:3d:bb:04:04:5d:44:
         38:5a:73:fd:84:b6:1f:a9:92:c1:c1:5a:34:96:e7:62:aa:89:
         1c:8b:e6:dc:f2:c9:1e:41:66:12:82:d7:45:5a:d0:5d:d0:93:
         fb:7c:20:05:f8:14:ea:17:82:57:90:98:07:3f:d8:92:b7:56:
         11:2e:ed:8a:24:fc:b1:55:03:a9:79:95:95:3b:1b:89:13:62:
         c8:bb:36:6e:61:16:58:55:25:ef:a8:d5:88:82:68:83:97:e8:
         9e:01:2a:37:78:cb:20:64:c6:fe:65:eb:25:3d:54:cb:29:88:
         72:86:e7:20:6a:db:c3:04:55:cf:f9:a9:15:0a:34:bc:16:08:
         8b:59:36:4e:15:61:d0:3c:7c:f0:16:c5:f5:88:8f:f3:87:5d:
         f0:59:27:e7:06:c4:e8:5c:57:60:9d:bc:ee:a7:d1:4e:09:a1:
         78:f7:9c:3d:ce:f7:62:bc:ed:6a:97:51:72:c2:95:1a:43:a9:
         69:32:09:3f:f9:7e:94:01:d1:2d:9c:64:fd:d5:2d:c8:df:79:
         1b:ef:9b:39:24:2a:9c:e0:a9:54:f6:9b:50:69:76:13:f3:84:
         c8:5a:e9:22:9c:20:bb:62:ff:58:97:25:bd:de:a0:f9:90:3f:
         89:69:0b:48:c7:29:9c:56:fe:b9:7e:90:06:ab:c3:eb:e4:4d:
         c6:e9:75:15:a0:79:88:76
-----BEGIN CERTIFICATE-----
MIIG5TCCBM2gAwIBAgIRANpDvROb0li7TdYcrMTz2+AwDQYJKoZIhvcNAQEMBQAw
gYgxCzAJBgNVBAYTAlVTMRMwEQYDVQQIEwpOZXcgSmVyc2V5MRQwEgYDVQQHEwtK
ZXJzZXkgQ2l0eTEeMBwGA1UEChMVVGhlIFVTRVJUUlVTVCBOZXR3b3JrMS4wLAYD
VQQDEyVVU0VSVHJ1c3QgUlNBIENlcnRpZmljYXRpb24gQXV0aG9yaXR5MB4XDTIw
MDIxODAwMDAwMFoXDTMzMDUwMTIzNTk1OVowRDELMAkGA1UEBhMCTkwxGTAXBgNV
BAoTEEdFQU5UIFZlcmVuaWdpbmcxGjAYBgNVBAMTEUdFQU5UIE9WIFJTQSBDQSA0
MIICIjANBgkqhkiG9w0BAQEFAAOCAg8AMIICCgKCAgEApYhi1aEiPsg9ZKRMAw9Q
r8Mthsr6R20VSfFeh7TgwtLQi6RSRLOh4or4EMG/1th8lijv7xnBMVZkTysFiPmT
PiLOfvz+QwO1NwjvgY+Jrs7fSoVA/TQkXzcxu4Tl3WHi+qJmKLJVu/JOuHud6mOp
LWkIbhODSzOxANJ24IGPx9h4OXDyy6/342eE6UPXCtJ8AzeumTG6Dfv5KVx24lCF
TGUzHUB+j+g0lSKg/Sf1OzgCajJV9enmZ/84ydh48wPp6vbWf1H0O3Rd3LhpMSVn
TqFTLKZSbQeLcx/l9DOKZfBCC9ghWxsgTqW9gQ7v3T3aIfSaVC9rnwVxO0VjmDdP
FNbdoxnh0zYwf45nV1QQgpRwZJ93yWedhp4ch1a6Ajwqs+wv4mZzmBSjovtV0mKw
d+CQbSToalEUP4QeJq4Udz5WNmNMI4OYP6cgrnlJ50aa0DZPlJqrKQPGL69KQQz1
2WgxvhCuVU70y6ZWAPopBa1ykbsttpLxADZre5cH573lIuLHdjx7NjpYIXRx2+QJ
URnX2qx37eZIxYXz8ggM+wXH6RDbU3V2o5DP67hXPHSAbA+p0orjAocpk2osxHKo
NSE3LCjNx8WVdxnXvuQ28tKdaK69knfm3bB7xpdfsNNTPH9ElcjscWZxpeZ5Iij8
lyrCG1z0vSWtSBsgSnUyG/sCAwEAAaOCAYswggGHMB8GA1UdIwQYMBaAFFN5v1qq
K0rPVIDh2JvAnfKyA2bLMB0GA1UdDgQWBBRvHTVJEGwy+lmgnryK6B+VvnF6DDAO
BgNVHQ8BAf8EBAMCAYYwEgYDVR0TAQH/BAgwBgEB/wIBADAdBgNVHSUEFjAUBggr
BgEFBQcDAQYIKwYBBQUHAwIwOAYDVR0gBDEwLzAtBgRVHSAAMCUwIwYIKwYBBQUH
AgEWF2h0dHBzOi8vc2VjdGlnby5jb20vQ1BTMFAGA1UdHwRJMEcwRaBDoEGGP2h0
dHA6Ly9jcmwudXNlcnRydXN0LmNvbS9VU0VSVHJ1c3RSU0FDZXJ0aWZpY2F0aW9u
QXV0aG9yaXR5LmNybDB2BggrBgEFBQcBAQRqMGgwPwYIKwYBBQUHMAKGM2h0dHA6
Ly9jcnQudXNlcnRydXN0LmNvbS9VU0VSVHJ1c3RSU0FBZGRUcnVzdENBLmNydDAl
BggrBgEFBQcwAYYZaHR0cDovL29jc3AudXNlcnRydXN0LmNvbTANBgkqhkiG9w0B
AQwFAAOCAgEAUtlC3e0xj/1BMfPhdQhUXeLjb0xp8UE28kzWE5xDzGKbfGgnrT2R
lw5gLIx+/cNVrad//+MrpTppMlxq59AsXYZW3xRasrvkjGfNR3vt/1RAl8iI31lG
hIg6dfIX5N4esLkrQeN8HiyHKH6khm4966IkVVtnxz5CgUPqEYn4eQ+4eeESrWBh
AqXaiv7HRvpsdwLYekAhnrlGpioZ/CJIT2PTTxf+GHM6cuUnNqdUzfvrQgA8kt1/
ASXx2od/M+c8nlJqrGz29lrJveJOSEMX0c/ts02WhsfMhkYa6XujUZLmvR1Eq08r
48/EZ4l+t5L4wt0DV8VaPbsEBF1EOFpz/YS2H6mSwcFaNJbnYqqJHIvm3PLJHkFm
EoLXRVrQXdCT+3wgBfgU6heCV5CYBz/YkrdWES7tiiT8sVUDqXmVlTsbiRNiyLs2
bmEWWFUl76jViIJog5fongEqN3jLIGTG/mXrJT1UyymIcobnIGrbwwRVz/mpFQo0
vBYIi1k2ThVh0Dx88BbF9YiP84dd8Fkn5wbE6FxXYJ287qfRTgmhePecPc73Yrzt
apdRcsKVGkOpaTIJP/l+lAHRLZxk/dUtyN95G++bOSQqnOCpVPabUGl2E/OEyFrp
Ipwgu2L/WJclvd6g+ZA/iWkLSMcpnFb+uX6QBqvD6+RNxul1FaB5iHY=
-----END CERTIFICATE-----
-----BEGIN CERTIFICATE-----
MIIFFjCCAv6gAwIBAgIRAJErCErPDBinU/bWLiWnX1owDQYJKoZIhvcNAQELBQAw
TzELMAkGA1UEBhMCVVMxKTAnBgNVBAoTIEludGVybmV0IFNlY3VyaXR5IFJlc2Vh
cmNoIEdyb3VwMRUwEwYDVQQDEwxJU1JHIFJvb3QgWDEwHhcNMjAwOTA0MDAwMDAw
WhcNMjUwOTE1MTYwMDAwWjAyMQswCQYDVQQGEwJVUzEWMBQGA1UEChMNTGV0J3Mg
RW5jcnlwdDELMAkGA1UEAxMCUjMwggEiMA0GCSqGSIb3DQEBAQUAA4IBDwAwggEK
AoIBAQC7AhUozPaglNMPEuyNVZLD+ILxmaZ6QoinXSaqtSu5xUyxr45r+XXIo9cP
R5QUVTVXjJ6oojkZ9YI8QqlObvU7wy7bjcCwXPNZOOftz2nwWgsbvsCUJCWH+jdx
sxPnHKzhm+/b5DtFUkWWqcFTzjTIUu61ru2P3mBw4qVUq7ZtDpelQDRrK9O8Zutm
NHz6a4uPVymZ+DAXXbpyb/uBxa3Shlg9F8fnCbvxK/eG3MHacV3URuPMrSXBiLxg
Z3Vms/EY96Jc5lP/Ooi2R6X/ExjqmAl3P51T+c8B5fWmcBcUr2Ok/5mzk53cU6cG
/kiFHaFpriV1uxPMUgP17VGhi9sVAgMBAAGjggEIMIIBBDAOBgNVHQ8BAf8EBAMC
AYYwHQYDVR0lBBYwFAYIKwYBBQUHAwIGCCsGAQUFBwMBMBIGA1UdEwEB/wQIMAYB
Af8CAQAwHQYDVR0OBBYEFBQusxe3WFbLrlAJQOYfr52LFMLGMB8GA1UdIwQYMBaA
FHm0WeZ7tuXkAXOACIjIGlj26ZtuMDIGCCsGAQUFBwEBBCYwJDAiBggrBgEFBQcw
AoYWaHR0cDovL3gxLmkubGVuY3Iub3JnLzAnBgNVHR8EIDAeMBygGqAYhhZodHRw
Oi8veDEuYy5sZW5jci5vcmcvMCIGA1UdIAQbMBkwCAYGZ4EMAQIBMA0GCysGAQQB
gt8TAQEBMA0GCSqGSIb3DQEBCwUAA4ICAQCFyk5HPqP3hUSFvNVneLKYY611TR6W
PTNlclQtgaDqw+34IL9fzLdwALduO/ZelN7kIJ+m74uyA+eitRY8kc607TkC53wl
ikfmZW4/RvTZ8M6UK+5UzhK8jCdLuMGYL6KvzXGRSgi3yLgjewQtCPkIVz6D2QQz
CkcheAmCJ8MqyJu5zlzyZMjAvnnAT45tRAxekrsu94sQ4egdRCnbWSDtY7kh+BIm
lJNXoB1lBMEKIq4QDUOXoRgffuDghje1WrG9ML+Hbisq/yFOGwXD9RiX8F6sw6W4
avAuvDszue5L3sz85K+EC4Y/wFVDNvZo4TYXao6Z0f+lQKc0t8DQYzk1OXVu8rp2
yJMC6alLbBfODALZvYH7n7do1AZls4I9d1P4jnkDrQoxB3UqQ9hVl3LEKQ73xF1O
yK5GhDDX8oVfGKF5u+decIsH4YaTw7mP3GFxJSqv3+0lUFJoi5Lc5da149p90Ids
hCExroL1+7mryIkXPeFM5TgO9r0rvZaBFOvV2z0gp35Z0+L4WPlbuEjN/lxPFin+
HlUjr8gRsI3qfJOQFy/9rKIJR0Y/8Omwt/8oTWgy1mdeHmmjk7j1nYsvC9JSQ6Zv
MldlTTKB3zhThV1+XWYp6rjd5JW1zbVWEkLNxE7GJThEUG3szgBVGP7pSWTUTsqX
nLRbwHOoq7hHwg==
-----END CERTIFICATE-----
